target datalayout = "e-m:e-p270:32:32-p271:32:32-p272:64:64-i64:64-i128:128-f80:128-n8:16:32:64-S128"
target triple = "x86_64-pc-linux-gnu"

%class.ShenandoahMonitoringSupport = type { ptr, ptr, ptr, ptr, ptr, ptr, %class.ShenandoahPeriodicCountersUpdateTask }
%class.ShenandoahPeriodicCountersUpdateTask = type { %class.PeriodicTask, %struct.ShenandoahSharedFlag, %struct.ShenandoahSharedFlag, ptr }
%class.PeriodicTask = type { ptr, i32, i32 }
%struct.ShenandoahSharedFlag = type { [64 x i8], i8, [64 x i8] }
%class.ShenandoahGenerationCounters = type { %class.GenerationCounters, ptr }
%class.GenerationCounters = type { ptr, ptr, ptr, ptr }
%"struct.Atomic::StoreImpl" = type { i8 }
%"struct.Atomic::PlatformOrderedStore" = type { i8 }

@.str = private unnamed_addr constant [19 x i8] c"Shenandoah partial\00", align 1
@.str.4 = private unnamed_addr constant [16 x i8] c"Shenandoah full\00", align 1
@.str.5 = private unnamed_addr constant [5 x i8] c"Heap\00", align 1
@_ZTV36ShenandoahPeriodicCountersUpdateTask = hidden unnamed_addr constant { [5 x ptr] } { [5 x ptr] [ptr null, ptr null, ptr @_ZN36ShenandoahPeriodicCountersUpdateTaskD2Ev, ptr @_ZN36ShenandoahPeriodicCountersUpdateTaskD0Ev, ptr @_ZN36ShenandoahPeriodicCountersUpdateTask4taskEv] }, align 8
@.str.10 = private unnamed_addr constant [6 x i8] c"Young\00", align 1
@_ZTV33ShenandoahYoungGenerationCounters = linkonce_odr hidden unnamed_addr constant { [3 x ptr] } { [3 x ptr] [ptr null, ptr null, ptr @_ZN33ShenandoahYoungGenerationCounters10update_allEv] }, comdat, align 8
@_ZTV28ShenandoahGenerationCounters = linkonce_odr hidden unnamed_addr constant { [3 x ptr] } { [3 x ptr] [ptr null, ptr null, ptr @_ZN28ShenandoahGenerationCounters10update_allEv] }, comdat, align 8

; Function Attrs: mustprogress nounwind uwtable
define linkonce_odr hidden void @_ZNK6Atomic20PlatformOrderedStoreILm1EL15ScopedFenceType2EEclIaEEvPVT_S4_(ptr noundef nonnull align 1 dereferenceable(1) %0, ptr noundef %1, i8 noundef signext %2) #1 comdat align 2 {
  %4 = alloca ptr, align 8
  %5 = alloca ptr, align 8
  %6 = alloca i8, align 1
  store ptr %0, ptr %4, align 8
  store ptr %1, ptr %5, align 8
  store i8 %2, ptr %6, align 1
  %7 = load i8, ptr %6, align 1
  %8 = load ptr, ptr %5, align 8
  %9 = call i8 asm sideeffect "xchgb ($2),$0", "=q,0,r,~{memory},~{dirflag},~{fpsr},~{flags}"(i8 %7, ptr %8) #4, !srcloc !7
  store i8 %9, ptr %6, align 1
  ret void
}

; Function Attrs: mustprogress nounwind uwtable
define linkonce_odr hidden void @_ZNK6Atomic9StoreImplIaaNS_20PlatformOrderedStoreILm1EL15ScopedFenceType2EEEvEclEPVaa(ptr noundef nonnull align 1 dereferenceable(1) %0, ptr noundef %1, i8 noundef signext %2) #1 comdat align 2 {
  %4 = alloca ptr, align 8
  %5 = alloca ptr, align 8
  %6 = alloca i8, align 1
  %7 = alloca %"struct.Atomic::PlatformOrderedStore", align 1
  store ptr %0, ptr %4, align 8
  store ptr %1, ptr %5, align 8
  store i8 %2, ptr %6, align 1
  %8 = load ptr, ptr %5, align 8
  %9 = load i8, ptr %6, align 1
  call void @_ZNK6Atomic20PlatformOrderedStoreILm1EL15ScopedFenceType2EEclIaEEvPVT_S4_(ptr noundef nonnull align 1 dereferenceable(1) %7, ptr noundef %8, i8 noundef signext %9)
  ret void
}

; Function Attrs: mustprogress nounwind uwtable
define linkonce_odr hidden void @_ZN6Atomic19release_store_fenceIaaEEvPVT_T0_(ptr noundef %0, i8 noundef signext %1) #1 comdat align 2 {
  %3 = alloca ptr, align 8
  %4 = alloca i8, align 1
  %5 = alloca %"struct.Atomic::StoreImpl", align 1
  store ptr %0, ptr %3, align 8
  store i8 %1, ptr %4, align 1
  %6 = load ptr, ptr %3, align 8
  %7 = load i8, ptr %4, align 1
  call void @_ZNK6Atomic9StoreImplIaaNS_20PlatformOrderedStoreILm1EL15ScopedFenceType2EEEvEclEPVaa(ptr noundef nonnull align 1 dereferenceable(1) %5, ptr noundef %6, i8 noundef signext %7)
  ret void
}

; Function Attrs: mustprogress nounwind uwtable
define linkonce_odr hidden void @_ZN20ShenandoahSharedFlag5unsetEv(ptr noundef nonnull align 1 dereferenceable(129) %0) #1 comdat align 2 {
  %2 = alloca ptr, align 8
  store ptr %0, ptr %2, align 8
  %3 = load ptr, ptr %2, align 8
  %4 = getelementptr inbounds %struct.ShenandoahSharedFlag, ptr %3, i32 0, i32 1
  call void @_ZN6Atomic19release_store_fenceIaaEEvPVT_T0_(ptr noundef %4, i8 noundef signext 0)
  ret void
}

; Function Attrs: mustprogress nounwind uwtable
define linkonce_odr hidden void @_ZN20ShenandoahSharedFlagC2Ev(ptr noundef nonnull align 1 dereferenceable(129) %0) unnamed_addr #1 comdat align 2 {
  %2 = alloca ptr, align 8
  store ptr %0, ptr %2, align 8
  %3 = load ptr, ptr %2, align 8
  call void @_ZN20ShenandoahSharedFlag5unsetEv(ptr noundef nonnull align 1 dereferenceable(129) %3)
  ret void
}

; Function Attrs: mustprogress nounwind uwtable
define linkonce_odr hidden noundef ptr @_ZNK18GenerationCounters10name_spaceEv(ptr noundef nonnull align 8 dereferenceable(32) %0) #1 comdat align 2 {
  %2 = alloca ptr, align 8
  store ptr %0, ptr %2, align 8
  %3 = load ptr, ptr %2, align 8
  %4 = getelementptr inbounds %class.GenerationCounters, ptr %3, i32 0, i32 3
  %5 = load ptr, ptr %4, align 8
  ret ptr %5
}

; Function Attrs: mustprogress nounwind uwtable
define linkonce_odr hidden void @_ZN28ShenandoahGenerationCountersC2EP14ShenandoahHeap(ptr noundef nonnull align 8 dereferenceable(40) %0, ptr noundef %1) unnamed_addr #1 comdat align 2 {
  %3 = alloca ptr, align 8
  %4 = alloca ptr, align 8
  store ptr %0, ptr %3, align 8
  store ptr %1, ptr %4, align 8
  %5 = load ptr, ptr %3, align 8
  %6 = load ptr, ptr %4, align 8
  %7 = call noundef i64 @_ZNK14ShenandoahHeap16initial_capacityEv(ptr noundef nonnull align 8 dereferenceable(2657) %6)
  %8 = load ptr, ptr %4, align 8
  %9 = load ptr, ptr %8, align 8
  %10 = getelementptr inbounds ptr, ptr %9, i64 15
  %11 = load ptr, ptr %10, align 8
  %12 = call noundef i64 %11(ptr noundef nonnull align 8 dereferenceable(2657) %8)
  %13 = load ptr, ptr %4, align 8
  %14 = load ptr, ptr %13, align 8
  %15 = getelementptr inbounds ptr, ptr %14, i64 11
  %16 = load ptr, ptr %15, align 8
  %17 = call noundef i64 %16(ptr noundef nonnull align 8 dereferenceable(2657) %13)
  call void @_ZN18GenerationCountersC2EPKciimmm(ptr noundef nonnull align 8 dereferenceable(32) %5, ptr noundef @.str.5, i32 noundef 1, i32 noundef 1, i64 noundef %7, i64 noundef %12, i64 noundef %17)
  store ptr getelementptr inbounds inrange(-16, 8) ({ [3 x ptr] }, ptr @_ZTV28ShenandoahGenerationCounters, i32 0, i32 0, i32 2), ptr %5, align 8
  %18 = getelementptr inbounds %class.ShenandoahGenerationCounters, ptr %5, i32 0, i32 1
  %19 = load ptr, ptr %4, align 8
  store ptr %19, ptr %18, align 8
  ret void
}

; Function Attrs: mustprogress nounwind uwtable
define linkonce_odr hidden void @_ZN33ShenandoahYoungGenerationCountersC2Ev(ptr noundef nonnull align 8 dereferenceable(32) %0) unnamed_addr #1 comdat align 2 {
  %2 = alloca ptr, align 8
  store ptr %0, ptr %2, align 8
  %3 = load ptr, ptr %2, align 8
  call void @_ZN18GenerationCountersC2EPKciimmm(ptr noundef nonnull align 8 dereferenceable(32) %3, ptr noundef @.str.10, i32 noundef 0, i32 noundef 0, i64 noundef 0, i64 noundef 0, i64 noundef 0)
  store ptr getelementptr inbounds inrange(-16, 8) ({ [3 x ptr] }, ptr @_ZTV33ShenandoahYoungGenerationCounters, i32 0, i32 0, i32 2), ptr %3, align 8
  ret void
}

; Function Attrs: mustprogress nounwind uwtable
define linkonce_odr hidden void @_ZN36ShenandoahPeriodicCountersUpdateTaskC2EP27ShenandoahMonitoringSupport(ptr noundef nonnull align 8 dereferenceable(288) %0, ptr noundef %1) unnamed_addr #1 comdat align 2 {
  %3 = alloca ptr, align 8
  %4 = alloca ptr, align 8
  store ptr %0, ptr %3, align 8
  store ptr %1, ptr %4, align 8
  %5 = load ptr, ptr %3, align 8
  call void @_ZN12PeriodicTaskC2Em(ptr noundef nonnull align 8 dereferenceable(16) %5, i64 noundef 100)
  store ptr getelementptr inbounds inrange(-16, 24) ({ [5 x ptr] }, ptr @_ZTV36ShenandoahPeriodicCountersUpdateTask, i32 0, i32 0, i32 2), ptr %5, align 8
  %6 = getelementptr inbounds %class.ShenandoahPeriodicCountersUpdateTask, ptr %5, i32 0, i32 1
  call void @_ZN20ShenandoahSharedFlagC2Ev(ptr noundef nonnull align 1 dereferenceable(129) %6)
  %7 = getelementptr inbounds %class.ShenandoahPeriodicCountersUpdateTask, ptr %5, i32 0, i32 2
  call void @_ZN20ShenandoahSharedFlagC2Ev(ptr noundef nonnull align 1 dereferenceable(129) %7)
  %8 = getelementptr inbounds %class.ShenandoahPeriodicCountersUpdateTask, ptr %5, i32 0, i32 3
  %9 = load ptr, ptr %4, align 8
  store ptr %9, ptr %8, align 8
  ret void
}

; Function Attrs: mustprogress nounwind uwtable
define hidden void @_ZN27ShenandoahMonitoringSupportC2EP14ShenandoahHeap(ptr noundef nonnull align 8 dereferenceable(336) %0, ptr noundef %1) unnamed_addr #1 align 2 {
  %3 = alloca i64, align 8
  %4 = alloca i8, align 1
  %5 = alloca i64, align 8
  %6 = alloca i8, align 1
  %7 = alloca i64, align 8
  %8 = alloca i8, align 1
  %9 = alloca i64, align 8
  %10 = alloca i8, align 1
  %11 = alloca i64, align 8
  %12 = alloca i8, align 1
  %13 = alloca i64, align 8
  %14 = alloca i8, align 1
  %15 = alloca i64, align 8
  %16 = alloca i64, align 8
  %17 = alloca i64, align 8
  %18 = alloca i64, align 8
  %19 = alloca i64, align 8
  %20 = alloca i64, align 8
  %21 = alloca ptr, align 8
  %22 = alloca ptr, align 8
  store ptr %0, ptr %21, align 8
  store ptr %1, ptr %22, align 8
  %23 = load ptr, ptr %21, align 8
  %24 = getelementptr inbounds %class.ShenandoahMonitoringSupport, ptr %23, i32 0, i32 0
  store ptr null, ptr %24, align 8
  %25 = getelementptr inbounds %class.ShenandoahMonitoringSupport, ptr %23, i32 0, i32 1
  store ptr null, ptr %25, align 8
  %26 = getelementptr inbounds %class.ShenandoahMonitoringSupport, ptr %23, i32 0, i32 6
  call void @_ZN36ShenandoahPeriodicCountersUpdateTaskC2EP27ShenandoahMonitoringSupport(ptr noundef nonnull align 8 dereferenceable(288) %26, ptr noundef %23)
  store i64 40, ptr %15, align 8
  %27 = load i64, ptr %15, align 8
  store i64 %27, ptr %13, align 8
  store i8 5, ptr %14, align 1
  %28 = load i64, ptr %13, align 8
  %29 = load i8, ptr %14, align 1
  %30 = call noundef ptr @_Z12AllocateHeapm8MEMFLAGSN17AllocFailStrategy13AllocFailEnumE(i64 noundef %28, i8 noundef zeroext %29, i32 noundef 0) #4
  call void @_ZN17CollectorCountersC1EPKci(ptr noundef nonnull align 8 dereferenceable(40) %30, ptr noundef @.str, i32 noundef 0)
  %31 = getelementptr inbounds %class.ShenandoahMonitoringSupport, ptr %23, i32 0, i32 0
  store ptr %30, ptr %31, align 8
  store i64 40, ptr %16, align 8
  %32 = load i64, ptr %16, align 8
  store i64 %32, ptr %11, align 8
  store i8 5, ptr %12, align 1
  %33 = load i64, ptr %11, align 8
  %34 = load i8, ptr %12, align 1
  %35 = call noundef ptr @_Z12AllocateHeapm8MEMFLAGSN17AllocFailStrategy13AllocFailEnumE(i64 noundef %33, i8 noundef zeroext %34, i32 noundef 0) #4
  call void @_ZN17CollectorCountersC1EPKci(ptr noundef nonnull align 8 dereferenceable(40) %35, ptr noundef @.str.4, i32 noundef 1)
  %36 = getelementptr inbounds %class.ShenandoahMonitoringSupport, ptr %23, i32 0, i32 1
  store ptr %35, ptr %36, align 8
  store i64 32, ptr %17, align 8
  %37 = load i64, ptr %17, align 8
  store i64 %37, ptr %9, align 8
  store i8 5, ptr %10, align 1
  %38 = load i64, ptr %9, align 8
  %39 = load i8, ptr %10, align 1
  %40 = call noundef ptr @_Z12AllocateHeapm8MEMFLAGSN17AllocFailStrategy13AllocFailEnumE(i64 noundef %38, i8 noundef zeroext %39, i32 noundef 0) #4
  call void @_ZN33ShenandoahYoungGenerationCountersC2Ev(ptr noundef nonnull align 8 dereferenceable(32) %40)
  %41 = getelementptr inbounds %class.ShenandoahMonitoringSupport, ptr %23, i32 0, i32 2
  store ptr %40, ptr %41, align 8
  store i64 40, ptr %18, align 8
  %42 = load i64, ptr %18, align 8
  store i64 %42, ptr %7, align 8
  store i8 5, ptr %8, align 1
  %43 = load i64, ptr %7, align 8
  %44 = load i8, ptr %8, align 1
  %45 = call noundef ptr @_Z12AllocateHeapm8MEMFLAGSN17AllocFailStrategy13AllocFailEnumE(i64 noundef %43, i8 noundef zeroext %44, i32 noundef 0) #4
  %46 = load ptr, ptr %22, align 8
  call void @_ZN28ShenandoahGenerationCountersC2EP14ShenandoahHeap(ptr noundef nonnull align 8 dereferenceable(40) %45, ptr noundef %46)
  %47 = getelementptr inbounds %class.ShenandoahMonitoringSupport, ptr %23, i32 0, i32 3
  store ptr %45, ptr %47, align 8
  store i64 24, ptr %19, align 8
  %48 = load i64, ptr %19, align 8
  store i64 %48, ptr %5, align 8
  store i8 5, ptr %6, align 1
  %49 = load i64, ptr %5, align 8
  %50 = load i8, ptr %6, align 1
  %51 = call noundef ptr @_Z12AllocateHeapm8MEMFLAGSN17AllocFailStrategy13AllocFailEnumE(i64 noundef %49, i8 noundef zeroext %50, i32 noundef 0) #4
  %52 = getelementptr inbounds %class.ShenandoahMonitoringSupport, ptr %23, i32 0, i32 3
  %53 = load ptr, ptr %52, align 8
  %54 = call noundef ptr @_ZNK18GenerationCounters10name_spaceEv(ptr noundef nonnull align 8 dereferenceable(32) %53)
  %55 = load ptr, ptr %22, align 8
  %56 = load ptr, ptr %55, align 8
  %57 = getelementptr inbounds ptr, ptr %56, i64 15
  %58 = load ptr, ptr %57, align 8
  %59 = call noundef i64 %58(ptr noundef nonnull align 8 dereferenceable(2657) %55)
  %60 = load ptr, ptr %22, align 8
  %61 = call noundef i64 @_ZNK14ShenandoahHeap16initial_capacityEv(ptr noundef nonnull align 8 dereferenceable(2657) %60)
  call void @_ZN14HSpaceCountersC1EPKcS1_imm(ptr noundef nonnull align 8 dereferenceable(24) %51, ptr noundef %54, ptr noundef @.str.5, i32 noundef 0, i64 noundef %59, i64 noundef %61)
  %62 = getelementptr inbounds %class.ShenandoahMonitoringSupport, ptr %23, i32 0, i32 4
  store ptr %51, ptr %62, align 8
  store i64 40, ptr %20, align 8
  %63 = load i64, ptr %20, align 8
  store i64 %63, ptr %3, align 8
  store i8 5, ptr %4, align 1
  %64 = load i64, ptr %3, align 8
  %65 = load i8, ptr %4, align 1
  %66 = call noundef ptr @_Z12AllocateHeapm8MEMFLAGSN17AllocFailStrategy13AllocFailEnumE(i64 noundef %64, i8 noundef zeroext %65, i32 noundef 0) #4
  call void @_ZN28ShenandoahHeapRegionCountersC1Ev(ptr noundef nonnull align 8 dereferenceable(40) %66)
  %67 = getelementptr inbounds %class.ShenandoahMonitoringSupport, ptr %23, i32 0, i32 5
  store ptr %66, ptr %67, align 8
  %68 = getelementptr inbounds %class.ShenandoahMonitoringSupport, ptr %23, i32 0, i32 6
  call void @_ZN12PeriodicTask6enrollEv(ptr noundef nonnull align 8 dereferenceable(16) %68)
  ret void
}