; Function Attrs: mustprogress nounwind uwtable
define hidden void @_ZN27ShenandoahMonitoringSupportC2EP14ShenandoahHeap(ptr noundef nonnull align 8 dereferenceable(336) %0, ptr noundef %1) unnamed_addr #0 align 2 {
  %3 = getelementptr inbounds i8, ptr %0, i64 8
  %4 = getelementptr inbounds i8, ptr %0, i64 48
  tail call void @llvm.memset.p0.i64(ptr noundef nonnull align 8 dereferenceable(16) %0, i8 0, i64 16, i1 false)
  tail call void @_ZN12PeriodicTaskC2Em(ptr noundef nonnull align 8 dereferenceable(16) %4, i64 noundef 100) #6
  store ptr getelementptr inbounds inrange(-16, 24) (i8, ptr @_ZTV36ShenandoahPeriodicCountersUpdateTask, i64 16), ptr %4, align 8
  %5 = getelementptr inbounds i8, ptr %0, i64 128
  %6 = tail call i8 asm sideeffect "xchgb ($2),$0", "=q,0,r,~{memory},~{dirflag},~{fpsr},~{flags}"(i8 0, ptr nonnull %5) #6, !srcloc !6
  %7 = getelementptr inbounds i8, ptr %0, i64 257
  %8 = tail call i8 asm sideeffect "xchgb ($2),$0", "=q,0,r,~{memory},~{dirflag},~{fpsr},~{flags}"(i8 0, ptr nonnull %7) #6, !srcloc !6
  %9 = getelementptr inbounds i8, ptr %0, i64 328
  store ptr %0, ptr %9, align 8
  %10 = tail call noundef ptr @_Z12AllocateHeapm8MEMFLAGSN17AllocFailStrategy13AllocFailEnumE(i64 noundef 40, i8 noundef zeroext 5, i32 noundef 0) #6
  tail call void @_ZN17CollectorCountersC1EPKci(ptr noundef nonnull align 8 dereferenceable(40) %10, ptr noundef nonnull @.str, i32 noundef 0) #6
  store ptr %10, ptr %0, align 8
  %11 = tail call noundef ptr @_Z12AllocateHeapm8MEMFLAGSN17AllocFailStrategy13AllocFailEnumE(i64 noundef 40, i8 noundef zeroext 5, i32 noundef 0) #6
  tail call void @_ZN17CollectorCountersC1EPKci(ptr noundef nonnull align 8 dereferenceable(40) %11, ptr noundef nonnull @.str.4, i32 noundef 1) #6
  store ptr %11, ptr %3, align 8
  %12 = tail call noundef ptr @_Z12AllocateHeapm8MEMFLAGSN17AllocFailStrategy13AllocFailEnumE(i64 noundef 32, i8 noundef zeroext 5, i32 noundef 0) #6
  tail call void @_ZN18GenerationCountersC2EPKciimmm(ptr noundef nonnull align 8 dereferenceable(32) %12, ptr noundef nonnull @.str.10, i32 noundef 0, i32 noundef 0, i64 noundef 0, i64 noundef 0, i64 noundef 0) #6
  store ptr getelementptr inbounds inrange(-16, 8) (i8, ptr @_ZTV33ShenandoahYoungGenerationCounters, i64 16), ptr %12, align 8
  %13 = getelementptr inbounds i8, ptr %0, i64 16
  store ptr %12, ptr %13, align 8
  %14 = tail call noundef ptr @_Z12AllocateHeapm8MEMFLAGSN17AllocFailStrategy13AllocFailEnumE(i64 noundef 40, i8 noundef zeroext 5, i32 noundef 0) #6
  %15 = tail call noundef i64 @_ZNK14ShenandoahHeap16initial_capacityEv(ptr noundef nonnull align 8 dereferenceable(2657) %1) #6
  %16 = load ptr, ptr %1, align 8
  %17 = getelementptr inbounds i8, ptr %16, i64 120
  %18 = load ptr, ptr %17, align 8
  %19 = tail call noundef i64 %18(ptr noundef nonnull align 8 dereferenceable(2657) %1) #6
  %20 = load ptr, ptr %1, align 8
  %21 = getelementptr inbounds i8, ptr %20, i64 88
  %22 = load ptr, ptr %21, align 8
  %23 = tail call noundef i64 %22(ptr noundef nonnull align 8 dereferenceable(2657) %1) #6
  tail call void @_ZN18GenerationCountersC2EPKciimmm(ptr noundef nonnull align 8 dereferenceable(32) %14, ptr noundef nonnull @.str.5, i32 noundef 1, i32 noundef 1, i64 noundef %15, i64 noundef %19, i64 noundef %23) #6
  store ptr getelementptr inbounds inrange(-16, 8) (i8, ptr @_ZTV28ShenandoahGenerationCounters, i64 16), ptr %14, align 8
  %24 = getelementptr inbounds i8, ptr %14, i64 32
  store ptr %1, ptr %24, align 8
  %25 = getelementptr inbounds i8, ptr %0, i64 24
  store ptr %14, ptr %25, align 8
  %26 = tail call noundef ptr @_Z12AllocateHeapm8MEMFLAGSN17AllocFailStrategy13AllocFailEnumE(i64 noundef 24, i8 noundef zeroext 5, i32 noundef 0) #6
  %27 = load ptr, ptr %25, align 8
  %28 = getelementptr inbounds i8, ptr %27, i64 24
  %29 = load ptr, ptr %28, align 8
  %30 = load ptr, ptr %1, align 8
  %31 = getelementptr inbounds i8, ptr %30, i64 120
  %32 = load ptr, ptr %31, align 8
  %33 = tail call noundef i64 %32(ptr noundef nonnull align 8 dereferenceable(2657) %1) #6
  %34 = tail call noundef i64 @_ZNK14ShenandoahHeap16initial_capacityEv(ptr noundef nonnull align 8 dereferenceable(2657) %1) #6
  tail call void @_ZN14HSpaceCountersC1EPKcS1_imm(ptr noundef nonnull align 8 dereferenceable(24) %26, ptr noundef %29, ptr noundef nonnull @.str.5, i32 noundef 0, i64 noundef %33, i64 noundef %34) #6
  %35 = getelementptr inbounds i8, ptr %0, i64 32
  store ptr %26, ptr %35, align 8
  %36 = tail call noundef ptr @_Z12AllocateHeapm8MEMFLAGSN17AllocFailStrategy13AllocFailEnumE(i64 noundef 40, i8 noundef zeroext 5, i32 noundef 0) #6
  tail call void @_ZN28ShenandoahHeapRegionCountersC1Ev(ptr noundef nonnull align 8 dereferenceable(40) %36) #6
  %37 = getelementptr inbounds i8, ptr %0, i64 40
  store ptr %36, ptr %37, align 8
  tail call void @_ZN12PeriodicTask6enrollEv(ptr noundef nonnull align 8 dereferenceable(16) %4) #6
  ret void
}